target datalayout = "e-m:e-p270:32:32-p271:32:32-p272:64:64-i64:64-i128:128-f80:128-n8:16:32:64-S128"
target triple = "x86_64-pc-linux-gnu"

%struct.lean_object = type { i32, i32 }

@l_Lean_Meta_mkOfEqTrueCore___closed__3 = internal global ptr null, align 8
@l_Lean_Meta_mkOfEqTrueCore___closed__5 = internal global ptr null, align 8

; Function Attrs: inlinehint nounwind uwtable
define internal zeroext i1 @lean_is_st(ptr noundef %0) #0 {
  %2 = alloca ptr, align 8
  store ptr %0, ptr %2, align 8, !tbaa !8
  %3 = load ptr, ptr %2, align 8, !tbaa !8
  %4 = getelementptr inbounds nuw %struct.lean_object, ptr %3, i32 0, i32 0
  %5 = load i32, ptr %4, align 4, !tbaa !13
  %6 = icmp sgt i32 %5, 0
  ret i1 %6
}

; Function Attrs: alwaysinline nounwind uwtable
define internal void @lean_dec_ref(ptr noundef %0) #1 {
  %2 = alloca ptr, align 8
  store ptr %0, ptr %2, align 8, !tbaa !8
  %3 = load ptr, ptr %2, align 8, !tbaa !8
  %4 = getelementptr inbounds nuw %struct.lean_object, ptr %3, i32 0, i32 0
  %5 = load i32, ptr %4, align 4, !tbaa !13
  %6 = icmp sgt i32 %5, 1
  %7 = zext i1 %6 to i32
  %8 = sext i32 %7 to i64
  %9 = call i64 @llvm.expect.i64(i64 %8, i64 1)
  %10 = icmp ne i64 %9, 0
  br i1 %10, label %11, label %16

11:                                               ; preds = %1
  %12 = load ptr, ptr %2, align 8, !tbaa !8
  %13 = getelementptr inbounds nuw %struct.lean_object, ptr %12, i32 0, i32 0
  %14 = load i32, ptr %13, align 4, !tbaa !13
  %15 = add i32 %14, -1
  store i32 %15, ptr %13, align 4, !tbaa !13
  br label %24

16:                                               ; preds = %1
  %17 = load ptr, ptr %2, align 8, !tbaa !8
  %18 = getelementptr inbounds nuw %struct.lean_object, ptr %17, i32 0, i32 0
  %19 = load i32, ptr %18, align 4, !tbaa !13
  %20 = icmp ne i32 %19, 0
  br i1 %20, label %21, label %23

21:                                               ; preds = %16
  %22 = load ptr, ptr %2, align 8, !tbaa !8
  call void @lean_dec_ref_cold(ptr noundef %22)
  br label %23

23:                                               ; preds = %21, %16
  br label %24

24:                                               ; preds = %23, %11
  ret void
}

; Function Attrs: inlinehint nounwind uwtable
define internal void @lean_inc_ref(ptr noundef %0) #0 {
  %2 = alloca ptr, align 8
  store ptr %0, ptr %2, align 8, !tbaa !8
  %3 = load ptr, ptr %2, align 8, !tbaa !8
  %4 = call zeroext i1 @lean_is_st(ptr noundef %3)
  %5 = zext i1 %4 to i64
  %6 = call i64 @llvm.expect.i64(i64 %5, i64 1)
  %7 = icmp ne i64 %6, 0
  br i1 %7, label %8, label %13

8:                                                ; preds = %1
  %9 = load ptr, ptr %2, align 8, !tbaa !8
  %10 = getelementptr inbounds nuw %struct.lean_object, ptr %9, i32 0, i32 0
  %11 = load i32, ptr %10, align 4, !tbaa !13
  %12 = add i32 %11, 1
  store i32 %12, ptr %10, align 4, !tbaa !13
  br label %21

13:                                               ; preds = %1
  %14 = load ptr, ptr %2, align 8, !tbaa !8
  %15 = getelementptr inbounds nuw %struct.lean_object, ptr %14, i32 0, i32 0
  %16 = load i32, ptr %15, align 4, !tbaa !13
  %17 = icmp ne i32 %16, 0
  br i1 %17, label %18, label %20

18:                                               ; preds = %13
  %19 = load ptr, ptr %2, align 8, !tbaa !8
  call void @lean_inc_ref_cold(ptr noundef %19)
  br label %20

20:                                               ; preds = %18, %13
  br label %21

21:                                               ; preds = %20, %8
  ret void
}

; Function Attrs: alwaysinline nounwind uwtable
define internal zeroext i1 @lean_is_scalar(ptr noundef %0) #1 {
  %2 = alloca ptr, align 8
  store ptr %0, ptr %2, align 8, !tbaa !8
  %3 = load ptr, ptr %2, align 8, !tbaa !8
  %4 = ptrtoint ptr %3 to i64
  %5 = and i64 %4, 1
  %6 = icmp eq i64 %5, 1
  ret i1 %6
}

; Function Attrs: inlinehint nounwind uwtable
define internal ptr @lean_box(i64 noundef %0) #0 {
  %2 = alloca i64, align 8
  store i64 %0, ptr %2, align 8, !tbaa !4
  %3 = load i64, ptr %2, align 8, !tbaa !4
  %4 = shl i64 %3, 1
  %5 = or i64 %4, 1
  %6 = inttoptr i64 %5 to ptr
  ret ptr %6
}

; Function Attrs: alwaysinline nounwind uwtable
define internal void @lean_dec(ptr noundef %0) #1 {
  %2 = alloca ptr, align 8
  store ptr %0, ptr %2, align 8, !tbaa !8
  %3 = load ptr, ptr %2, align 8, !tbaa !8
  %4 = call zeroext i1 @lean_is_scalar(ptr noundef %3)
  br i1 %4, label %7, label %5

5:                                                ; preds = %1
  %6 = load ptr, ptr %2, align 8, !tbaa !8
  call void @lean_dec_ref(ptr noundef %6)
  br label %7

7:                                                ; preds = %5, %1
  ret void
}

; Function Attrs: alwaysinline nounwind uwtable
define internal void @lean_inc(ptr noundef %0) #1 {
  %2 = alloca ptr, align 8
  store ptr %0, ptr %2, align 8, !tbaa !8
  %3 = load ptr, ptr %2, align 8, !tbaa !8
  %4 = call zeroext i1 @lean_is_scalar(ptr noundef %3)
  br i1 %4, label %7, label %5

5:                                                ; preds = %1
  %6 = load ptr, ptr %2, align 8, !tbaa !8
  call void @lean_inc_ref(ptr noundef %6)
  br label %7

7:                                                ; preds = %5, %1
  ret void
}

; Function Attrs: nounwind uwtable
define ptr @l_Lean_Meta_mkOfEqTrueCore(ptr noundef %0, ptr noundef %1) #2 {
  %3 = alloca ptr, align 8
  %4 = alloca ptr, align 8
  %5 = alloca ptr, align 8
  %6 = alloca ptr, align 8
  %7 = alloca i8, align 1
  %8 = alloca ptr, align 8
  %9 = alloca ptr, align 8
  %10 = alloca i32, align 4
  %11 = alloca ptr, align 8
  %12 = alloca ptr, align 8
  %13 = alloca i8, align 1
  %14 = alloca ptr, align 8
  %15 = alloca ptr, align 8
  %16 = alloca ptr, align 8
  %17 = alloca ptr, align 8
  %18 = alloca i8, align 1
  %19 = alloca ptr, align 8
  %20 = alloca ptr, align 8
  store ptr %0, ptr %4, align 8, !tbaa !8
  store ptr %1, ptr %5, align 8, !tbaa !8
  br label %21

21:                                               ; preds = %2
  call void @llvm.lifetime.start.p0(i64 8, ptr %6) #7
  call void @llvm.lifetime.start.p0(i64 1, ptr %7) #7
  %22 = load ptr, ptr %5, align 8, !tbaa !8
  call void @lean_inc(ptr noundef %22)
  %23 = load ptr, ptr %5, align 8, !tbaa !8
  %24 = call ptr @l_Lean_Expr_cleanupAnnotations(ptr noundef %23)
  store ptr %24, ptr %6, align 8, !tbaa !8
  %25 = load ptr, ptr %6, align 8, !tbaa !8
  %26 = call zeroext i8 @l_Lean_Expr_isApp(ptr noundef %25)
  store i8 %26, ptr %7, align 1, !tbaa !10
  %27 = load i8, ptr %7, align 1, !tbaa !10
  %28 = zext i8 %27 to i32
  %29 = icmp eq i32 %28, 0
  br i1 %29, label %30, label %38

30:                                               ; preds = %21
  call void @llvm.lifetime.start.p0(i64 8, ptr %8) #7
  call void @llvm.lifetime.start.p0(i64 8, ptr %9) #7
  %31 = load ptr, ptr %6, align 8, !tbaa !8
  call void @lean_dec(ptr noundef %31)
  %32 = load ptr, ptr @l_Lean_Meta_mkOfEqTrueCore___closed__3, align 8, !tbaa !8
  store ptr %32, ptr %8, align 8, !tbaa !8
  %33 = load ptr, ptr %8, align 8, !tbaa !8
  %34 = load ptr, ptr %4, align 8, !tbaa !8
  %35 = load ptr, ptr %5, align 8, !tbaa !8
  %36 = call ptr @l_Lean_mkAppB(ptr noundef %33, ptr noundef %34, ptr noundef %35)
  store ptr %36, ptr %9, align 8, !tbaa !8
  %37 = load ptr, ptr %9, align 8, !tbaa !8
  store ptr %37, ptr %3, align 8
  store i32 1, ptr %10, align 4
  call void @llvm.lifetime.end.p0(i64 8, ptr %9) #7
  call void @llvm.lifetime.end.p0(i64 8, ptr %8) #7
  br label %85

38:                                               ; preds = %21
  call void @llvm.lifetime.start.p0(i64 8, ptr %11) #7
  call void @llvm.lifetime.start.p0(i64 8, ptr %12) #7
  call void @llvm.lifetime.start.p0(i64 1, ptr %13) #7
  %39 = load ptr, ptr %6, align 8, !tbaa !8
  %40 = call ptr @lean_box(i64 noundef 0)
  %41 = call ptr @l_Lean_Expr_appArg(ptr noundef %39, ptr noundef %40)
  store ptr %41, ptr %11, align 8, !tbaa !8
  %42 = load ptr, ptr %6, align 8, !tbaa !8
  %43 = call ptr @lean_box(i64 noundef 0)
  %44 = call ptr @l_Lean_Expr_appFnCleanup(ptr noundef %42, ptr noundef %43)
  store ptr %44, ptr %12, align 8, !tbaa !8
  %45 = load ptr, ptr %12, align 8, !tbaa !8
  %46 = call zeroext i8 @l_Lean_Expr_isApp(ptr noundef %45)
  store i8 %46, ptr %13, align 1, !tbaa !10
  %47 = load i8, ptr %13, align 1, !tbaa !10
  %48 = zext i8 %47 to i32
  %49 = icmp eq i32 %48, 0
  br i1 %49, label %50, label %59

50:                                               ; preds = %38
  call void @llvm.lifetime.start.p0(i64 8, ptr %14) #7
  call void @llvm.lifetime.start.p0(i64 8, ptr %15) #7
  %51 = load ptr, ptr %12, align 8, !tbaa !8
  call void @lean_dec(ptr noundef %51)
  %52 = load ptr, ptr %11, align 8, !tbaa !8
  call void @lean_dec(ptr noundef %52)
  %53 = load ptr, ptr @l_Lean_Meta_mkOfEqTrueCore___closed__3, align 8, !tbaa !8
  store ptr %53, ptr %14, align 8, !tbaa !8
  %54 = load ptr, ptr %14, align 8, !tbaa !8
  %55 = load ptr, ptr %4, align 8, !tbaa !8
  %56 = load ptr, ptr %5, align 8, !tbaa !8
  %57 = call ptr @l_Lean_mkAppB(ptr noundef %54, ptr noundef %55, ptr noundef %56)
  store ptr %57, ptr %15, align 8, !tbaa !8
  %58 = load ptr, ptr %15, align 8, !tbaa !8
  store ptr %58, ptr %3, align 8
  store i32 1, ptr %10, align 4
  call void @llvm.lifetime.end.p0(i64 8, ptr %15) #7
  call void @llvm.lifetime.end.p0(i64 8, ptr %14) #7
  br label %84

59:                                               ; preds = %38
  call void @llvm.lifetime.start.p0(i64 8, ptr %16) #7
  call void @llvm.lifetime.start.p0(i64 8, ptr %17) #7
  call void @llvm.lifetime.start.p0(i64 1, ptr %18) #7
  %60 = load ptr, ptr %12, align 8, !tbaa !8
  %61 = call ptr @lean_box(i64 noundef 0)
  %62 = call ptr @l_Lean_Expr_appFnCleanup(ptr noundef %60, ptr noundef %61)
  store ptr %62, ptr %16, align 8, !tbaa !8
  %63 = load ptr, ptr @l_Lean_Meta_mkOfEqTrueCore___closed__5, align 8, !tbaa !8
  store ptr %63, ptr %17, align 8, !tbaa !8
  %64 = load ptr, ptr %16, align 8, !tbaa !8
  %65 = load ptr, ptr %17, align 8, !tbaa !8
  %66 = call zeroext i8 @l_Lean_Expr_isConstOf(ptr noundef %64, ptr noundef %65)
  store i8 %66, ptr %18, align 1, !tbaa !10
  %67 = load ptr, ptr %16, align 8, !tbaa !8
  call void @lean_dec(ptr noundef %67)
  %68 = load i8, ptr %18, align 1, !tbaa !10
  %69 = zext i8 %68 to i32
  %70 = icmp eq i32 %69, 0
  br i1 %70, label %71, label %79

71:                                               ; preds = %59
  call void @llvm.lifetime.start.p0(i64 8, ptr %19) #7
  call void @llvm.lifetime.start.p0(i64 8, ptr %20) #7
  %72 = load ptr, ptr %11, align 8, !tbaa !8
  call void @lean_dec(ptr noundef %72)
  %73 = load ptr, ptr @l_Lean_Meta_mkOfEqTrueCore___closed__3, align 8, !tbaa !8
  store ptr %73, ptr %19, align 8, !tbaa !8
  %74 = load ptr, ptr %19, align 8, !tbaa !8
  %75 = load ptr, ptr %4, align 8, !tbaa !8
  %76 = load ptr, ptr %5, align 8, !tbaa !8
  %77 = call ptr @l_Lean_mkAppB(ptr noundef %74, ptr noundef %75, ptr noundef %76)
  store ptr %77, ptr %20, align 8, !tbaa !8
  %78 = load ptr, ptr %20, align 8, !tbaa !8
  store ptr %78, ptr %3, align 8
  store i32 1, ptr %10, align 4
  call void @llvm.lifetime.end.p0(i64 8, ptr %20) #7
  call void @llvm.lifetime.end.p0(i64 8, ptr %19) #7
  br label %83

79:                                               ; preds = %59
  %80 = load ptr, ptr %5, align 8, !tbaa !8
  call void @lean_dec(ptr noundef %80)
  %81 = load ptr, ptr %4, align 8, !tbaa !8
  call void @lean_dec(ptr noundef %81)
  %82 = load ptr, ptr %11, align 8, !tbaa !8
  store ptr %82, ptr %3, align 8
  store i32 1, ptr %10, align 4
  br label %83

83:                                               ; preds = %79, %71
  call void @llvm.lifetime.end.p0(i64 1, ptr %18) #7
  call void @llvm.lifetime.end.p0(i64 8, ptr %17) #7
  call void @llvm.lifetime.end.p0(i64 8, ptr %16) #7
  br label %84

84:                                               ; preds = %83, %50
  call void @llvm.lifetime.end.p0(i64 1, ptr %13) #7
  call void @llvm.lifetime.end.p0(i64 8, ptr %12) #7
  call void @llvm.lifetime.end.p0(i64 8, ptr %11) #7
  br label %85

85:                                               ; preds = %84, %30
  call void @llvm.lifetime.end.p0(i64 1, ptr %7) #7
  call void @llvm.lifetime.end.p0(i64 8, ptr %6) #7
  %86 = load ptr, ptr %3, align 8
  ret ptr %86
}