; Function Attrs: nounwind uwtable
define ptr @l_Lean_Meta_mkOfEqTrueCore(ptr noundef %0, ptr noundef %1) local_unnamed_addr #0 {
  %3 = ptrtoint ptr %1 to i64
  %4 = and i64 %3, 1
  %.not = icmp eq i64 %4, 0
  br i1 %.not, label %5, label %lean_inc.exit

5:                                                ; preds = %2
  %.val.i = load i32, ptr %1, align 4, !tbaa !4
  %6 = icmp sgt i32 %.val.i, 0
  br i1 %6, label %7, label %9, !prof !9

7:                                                ; preds = %5
  %8 = add nuw i32 %.val.i, 1
  store i32 %8, ptr %1, align 4, !tbaa !4
  br label %lean_inc.exit

9:                                                ; preds = %5
  %.not.i50 = icmp eq i32 %.val.i, 0
  br i1 %.not.i50, label %lean_inc.exit, label %10

10:                                               ; preds = %9
  tail call void @lean_inc_ref_cold(ptr noundef nonnull %1) #5
  br label %lean_inc.exit

lean_inc.exit:                                    ; preds = %10, %9, %7, %2
  %11 = tail call ptr @l_Lean_Expr_cleanupAnnotations(ptr noundef %1) #5
  %12 = tail call zeroext i8 @l_Lean_Expr_isApp(ptr noundef %11) #5
  %13 = icmp eq i8 %12, 0
  br i1 %13, label %14, label %26

14:                                               ; preds = %lean_inc.exit
  %15 = ptrtoint ptr %11 to i64
  %16 = and i64 %15, 1
  %.not56 = icmp eq i64 %16, 0
  br i1 %.not56, label %17, label %lean_dec.exit37

17:                                               ; preds = %14
  %18 = load i32, ptr %11, align 4, !tbaa !4
  %19 = icmp sgt i32 %18, 1
  br i1 %19, label %20, label %22, !prof !9

20:                                               ; preds = %17
  %21 = add nsw i32 %18, -1
  store i32 %21, ptr %11, align 4, !tbaa !4
  br label %lean_dec.exit37

22:                                               ; preds = %17
  %.not.i = icmp eq i32 %18, 0
  br i1 %.not.i, label %lean_dec.exit37, label %23

23:                                               ; preds = %22
  tail call void @lean_dec_ref_cold(ptr noundef nonnull %11) #5
  br label %lean_dec.exit37

lean_dec.exit37:                                  ; preds = %23, %22, %20, %14
  %24 = load ptr, ptr @l_Lean_Meta_mkOfEqTrueCore___closed__3, align 8, !tbaa !10
  %25 = tail call ptr @l_Lean_mkAppB(ptr noundef %24, ptr noundef %0, ptr noundef %1) #5
  br label %lean_dec.exit

26:                                               ; preds = %lean_inc.exit
  %27 = tail call ptr @l_Lean_Expr_appArg(ptr noundef %11, ptr noundef nonnull inttoptr (i64 1 to ptr)) #5
  %28 = tail call ptr @l_Lean_Expr_appFnCleanup(ptr noundef %11, ptr noundef nonnull inttoptr (i64 1 to ptr)) #5
  %29 = tail call zeroext i8 @l_Lean_Expr_isApp(ptr noundef %28) #5
  %30 = icmp eq i8 %29, 0
  br i1 %30, label %31, label %52

31:                                               ; preds = %26
  %32 = ptrtoint ptr %28 to i64
  %33 = and i64 %32, 1
  %.not54 = icmp eq i64 %33, 0
  br i1 %.not54, label %34, label %lean_dec.exit36

34:                                               ; preds = %31
  %35 = load i32, ptr %28, align 4, !tbaa !4
  %36 = icmp sgt i32 %35, 1
  br i1 %36, label %37, label %39, !prof !9

37:                                               ; preds = %34
  %38 = add nsw i32 %35, -1
  store i32 %38, ptr %28, align 4, !tbaa !4
  br label %lean_dec.exit36

39:                                               ; preds = %34
  %.not.i38 = icmp eq i32 %35, 0
  br i1 %.not.i38, label %lean_dec.exit36, label %40

40:                                               ; preds = %39
  tail call void @lean_dec_ref_cold(ptr noundef nonnull %28) #5
  br label %lean_dec.exit36

lean_dec.exit36:                                  ; preds = %40, %39, %37, %31
  %41 = ptrtoint ptr %27 to i64
  %42 = and i64 %41, 1
  %.not55 = icmp eq i64 %42, 0
  br i1 %.not55, label %43, label %lean_dec.exit35

43:                                               ; preds = %lean_dec.exit36
  %44 = load i32, ptr %27, align 4, !tbaa !4
  %45 = icmp sgt i32 %44, 1
  br i1 %45, label %46, label %48, !prof !9

46:                                               ; preds = %43
  %47 = add nsw i32 %44, -1
  store i32 %47, ptr %27, align 4, !tbaa !4
  br label %lean_dec.exit35

48:                                               ; preds = %43
  %.not.i40 = icmp eq i32 %44, 0
  br i1 %.not.i40, label %lean_dec.exit35, label %49

49:                                               ; preds = %48
  tail call void @lean_dec_ref_cold(ptr noundef nonnull %27) #5
  br label %lean_dec.exit35

lean_dec.exit35:                                  ; preds = %49, %48, %46, %lean_dec.exit36
  %50 = load ptr, ptr @l_Lean_Meta_mkOfEqTrueCore___closed__3, align 8, !tbaa !10
  %51 = tail call ptr @l_Lean_mkAppB(ptr noundef %50, ptr noundef %0, ptr noundef %1) #5
  br label %lean_dec.exit

52:                                               ; preds = %26
  %53 = tail call ptr @l_Lean_Expr_appFnCleanup(ptr noundef %28, ptr noundef nonnull inttoptr (i64 1 to ptr)) #5
  %54 = load ptr, ptr @l_Lean_Meta_mkOfEqTrueCore___closed__5, align 8, !tbaa !10
  %55 = tail call zeroext i8 @l_Lean_Expr_isConstOf(ptr noundef %53, ptr noundef %54) #5
  %56 = ptrtoint ptr %53 to i64
  %57 = and i64 %56, 1
  %.not51 = icmp eq i64 %57, 0
  br i1 %.not51, label %58, label %lean_dec.exit34

58:                                               ; preds = %52
  %59 = load i32, ptr %53, align 4, !tbaa !4
  %60 = icmp sgt i32 %59, 1
  br i1 %60, label %61, label %63, !prof !9

61:                                               ; preds = %58
  %62 = add nsw i32 %59, -1
  store i32 %62, ptr %53, align 4, !tbaa !4
  br label %lean_dec.exit34

63:                                               ; preds = %58
  %.not.i42 = icmp eq i32 %59, 0
  br i1 %.not.i42, label %lean_dec.exit34, label %64

64:                                               ; preds = %63
  tail call void @lean_dec_ref_cold(ptr noundef nonnull %53) #5
  br label %lean_dec.exit34

lean_dec.exit34:                                  ; preds = %64, %63, %61, %52
  %65 = icmp eq i8 %55, 0
  br i1 %65, label %66, label %78

66:                                               ; preds = %lean_dec.exit34
  %67 = ptrtoint ptr %27 to i64
  %68 = and i64 %67, 1
  %.not53 = icmp eq i64 %68, 0
  br i1 %.not53, label %69, label %lean_dec.exit33

69:                                               ; preds = %66
  %70 = load i32, ptr %27, align 4, !tbaa !4
  %71 = icmp sgt i32 %70, 1
  br i1 %71, label %72, label %74, !prof !9

72:                                               ; preds = %69
  %73 = add nsw i32 %70, -1
  store i32 %73, ptr %27, align 4, !tbaa !4
  br label %lean_dec.exit33

74:                                               ; preds = %69
  %.not.i44 = icmp eq i32 %70, 0
  br i1 %.not.i44, label %lean_dec.exit33, label %75

75:                                               ; preds = %74
  tail call void @lean_dec_ref_cold(ptr noundef nonnull %27) #5
  br label %lean_dec.exit33

lean_dec.exit33:                                  ; preds = %75, %74, %72, %66
  %76 = load ptr, ptr @l_Lean_Meta_mkOfEqTrueCore___closed__3, align 8, !tbaa !10
  %77 = tail call ptr @l_Lean_mkAppB(ptr noundef %76, ptr noundef %0, ptr noundef %1) #5
  br label %lean_dec.exit

78:                                               ; preds = %lean_dec.exit34
  br i1 %.not, label %79, label %lean_dec.exit32

79:                                               ; preds = %78
  %80 = load i32, ptr %1, align 4, !tbaa !4
  %81 = icmp sgt i32 %80, 1
  br i1 %81, label %82, label %84, !prof !9

82:                                               ; preds = %79
  %83 = add nsw i32 %80, -1
  store i32 %83, ptr %1, align 4, !tbaa !4
  br label %lean_dec.exit32

84:                                               ; preds = %79
  %.not.i46 = icmp eq i32 %80, 0
  br i1 %.not.i46, label %lean_dec.exit32, label %85

85:                                               ; preds = %84
  tail call void @lean_dec_ref_cold(ptr noundef nonnull %1) #5
  br label %lean_dec.exit32

lean_dec.exit32:                                  ; preds = %85, %84, %82, %78
  %86 = ptrtoint ptr %0 to i64
  %87 = and i64 %86, 1
  %.not52 = icmp eq i64 %87, 0
  br i1 %.not52, label %88, label %lean_dec.exit

88:                                               ; preds = %lean_dec.exit32
  %89 = load i32, ptr %0, align 4, !tbaa !4
  %90 = icmp sgt i32 %89, 1
  br i1 %90, label %91, label %93, !prof !9

91:                                               ; preds = %88
  %92 = add nsw i32 %89, -1
  store i32 %92, ptr %0, align 4, !tbaa !4
  br label %lean_dec.exit

93:                                               ; preds = %88
  %.not.i48 = icmp eq i32 %89, 0
  br i1 %.not.i48, label %lean_dec.exit, label %94

94:                                               ; preds = %93
  tail call void @lean_dec_ref_cold(ptr noundef nonnull %0) #5
  br label %lean_dec.exit

lean_dec.exit:                                    ; preds = %lean_dec.exit32, %91, %93, %94, %lean_dec.exit35, %lean_dec.exit33, %lean_dec.exit37
  %.0 = phi ptr [ %25, %lean_dec.exit37 ], [ %51, %lean_dec.exit35 ], [ %77, %lean_dec.exit33 ], [ %27, %94 ], [ %27, %93 ], [ %27, %91 ], [ %27, %lean_dec.exit32 ]
  ret ptr %.0
}